target datalayout = "e-m:e-p270:32:32-p271:32:32-p272:64:64-i64:64-i128:128-f80:128-n8:16:32:64-S128"
target triple = "x86_64-pc-linux-gnu"

@.str.63 = private unnamed_addr constant [62 x i8] c"\0AUSAGE: %s [options] <JPEG input image> <JPEG output image>\0A\0A\00", align 1
@.str.64 = private unnamed_addr constant [74 x i8] c"This program reads the DCT coefficients from the lossy JPEG input image,\0A\00", align 1
@.str.65 = private unnamed_addr constant [76 x i8] c"optionally transforms them, and writes them to a lossy JPEG output image.\0A\0A\00", align 1
@.str.66 = private unnamed_addr constant [31 x i8] c"OPTIONS (CAN BE ABBREVBIATED)\0A\00", align 1
@.str.67 = private unnamed_addr constant [31 x i8] c"-----------------------------\0A\00", align 1
@.str.68 = private unnamed_addr constant [13 x i8] c"-arithmetic\0A\00", align 1
@.str.69 = private unnamed_addr constant [74 x i8] c"    Use arithmetic entropy coding in the output image instead of Huffman\0A\00", align 1
@.str.70 = private unnamed_addr constant [56 x i8] c"    entropy coding (can be combined with -progressive)\0A\00", align 1
@.str.71 = private unnamed_addr constant [11 x i8] c"-copy all\0A\00", align 1
@.str.72 = private unnamed_addr constant [81 x i8] c"    Copy all extra markers (including comments, JFIF thumbnails, Exif data, and\0A\00", align 1
@.str.73 = private unnamed_addr constant [64 x i8] c"    ICC profile data) from the input image to the output image\0A\00", align 1
@.str.74 = private unnamed_addr constant [16 x i8] c"-copy comments\0A\00", align 1
@.str.75 = private unnamed_addr constant [75 x i8] c"    Do not copy any extra markers, except comment markers, from the input\0A\00", align 1
@.str.76 = private unnamed_addr constant [41 x i8] c"    image to the output image [default]\0A\00", align 1
@.str.77 = private unnamed_addr constant [11 x i8] c"-copy icc\0A\00", align 1
@.str.78 = private unnamed_addr constant [76 x i8] c"    Do not copy any extra markers, except ICC profile data, from the input\0A\00", align 1
@.str.79 = private unnamed_addr constant [31 x i8] c"    image to the output image\0A\00", align 1
@.str.80 = private unnamed_addr constant [12 x i8] c"-copy none\0A\00", align 1
@.str.81 = private unnamed_addr constant [76 x i8] c"    Do not copy any extra markers from the input image to the output image\0A\00", align 1
@.str.82 = private unnamed_addr constant [15 x i8] c"-crop WxH+X+Y\0A\00", align 1
@.str.83 = private unnamed_addr constant [80 x i8] c"    Include only the specified region of the input image.  (W, H, X, and Y are\0A\00", align 1
@.str.84 = private unnamed_addr constant [77 x i8] c"    the width, height, left boundary, and upper boundary of the region, all\0A\00", align 1
@.str.85 = private unnamed_addr constant [79 x i8] c"    specified relative to the transformed image dimensions.)  If necessary, X\0A\00", align 1
@.str.86 = private unnamed_addr constant [81 x i8] c"    and Y will be shifted up and left to the nearest iMCU boundary, and W and H\0A\00", align 1
@.str.87 = private unnamed_addr constant [36 x i8] c"    will be increased accordingly.\0A\00", align 1
@.str.88 = private unnamed_addr constant [76 x i8] c"-flip {horizontal|vertical}, -rotate {90|180|270}, -transpose, -transverse\0A\00", align 1
@.str.89 = private unnamed_addr constant [75 x i8] c"    Perform the specified lossless transform operation (these options are\0A\00", align 1
@.str.90 = private unnamed_addr constant [25 x i8] c"    mutually exclusive)\0A\00", align 1
@.str.91 = private unnamed_addr constant [12 x i8] c"-grayscale\0A\00", align 1
@.str.92 = private unnamed_addr constant [67 x i8] c"    Create a grayscale output image from a full-color input image\0A\00", align 1
@.str.93 = private unnamed_addr constant [11 x i8] c"-icc FILE\0A\00", align 1
@.str.94 = private unnamed_addr constant [77 x i8] c"    Embed the ICC (International Color Consortium) color management profile\0A\00", align 1
@.str.95 = private unnamed_addr constant [51 x i8] c"    from the specified file into the output image\0A\00", align 1
@.str.96 = private unnamed_addr constant [14 x i8] c"-maxmemory N\0A\00", align 1
@.str.97 = private unnamed_addr constant [80 x i8] c"    Memory limit (in megabytes) for intermediate buffers used with progressive\0A\00", align 1
@.str.98 = private unnamed_addr constant [79 x i8] c"    JPEG compression, Huffman table optimization, and lossless transformation\0A\00", align 1
@.str.99 = private unnamed_addr constant [26 x i8] c"    [default = no limit]\0A\00", align 1
@.str.100 = private unnamed_addr constant [13 x i8] c"-maxscans N\0A\00", align 1
@.str.101 = private unnamed_addr constant [77 x i8] c"    Refuse to transform progressive JPEG images that have more than N scans\0A\00", align 1
@.str.102 = private unnamed_addr constant [11 x i8] c"-optimize\0A\00", align 1
@.str.103 = private unnamed_addr constant [56 x i8] c"    Use Huffman table optimization in the output image\0A\00", align 1
@.str.104 = private unnamed_addr constant [10 x i8] c"-perfect\0A\00", align 1
@.str.105 = private unnamed_addr constant [79 x i8] c"    Abort if the requested transform operation is imperfect (non-reversible.)\0A\00", align 1
@.str.106 = private unnamed_addr constant [77 x i8] c"    '-flip horizontal', '-rotate 180', '-rotate 270', and '-transverse' are\0A\00", align 1
@.str.107 = private unnamed_addr constant [77 x i8] c"    imperfect if the image width is not evenly divisible by the iMCU width.\0A\00", align 1
@.str.108 = private unnamed_addr constant [74 x i8] c"    '-flip vertical', '-rotate 90', '-rotate 180', and '-transverse' are\0A\00", align 1
@.str.109 = private unnamed_addr constant [79 x i8] c"    imperfect if the image height is not evenly divisible by the iMCU height.\0A\00", align 1
@.str.110 = private unnamed_addr constant [14 x i8] c"-progressive\0A\00", align 1
@.str.111 = private unnamed_addr constant [77 x i8] c"    Create a progressive output image instead of a single-scan output image\0A\00", align 1
@.str.112 = private unnamed_addr constant [80 x i8] c"    (can be combined with -arithmetic; implies -optimize unless -arithmetic is\0A\00", align 1
@.str.113 = private unnamed_addr constant [21 x i8] c"    also specified)\0A\00", align 1
@.str.114 = private unnamed_addr constant [12 x i8] c"-restart N\0A\00", align 1
@.str.115 = private unnamed_addr constant [79 x i8] c"    Add a restart marker every N MCU rows [default = 0 (no restart markers)].\0A\00", align 1
@.str.116 = private unnamed_addr constant [64 x i8] c"    Append 'B' to specify the restart marker interval in MCUs.\0A\00", align 1
@.str.117 = private unnamed_addr constant [9 x i8] c"-strict\0A\00", align 1
@.str.118 = private unnamed_addr constant [77 x i8] c"    Treat all warnings as fatal; abort immediately if incomplete or corrupt\0A\00", align 1
@.str.119 = private unnamed_addr constant [79 x i8] c"    data is encountered in the input image, rather than trying to salvage the\0A\00", align 1
@.str.120 = private unnamed_addr constant [23 x i8] c"    rest of the image\0A\00", align 1
@.str.121 = private unnamed_addr constant [7 x i8] c"-trim\0A\00", align 1
@.str.122 = private unnamed_addr constant [77 x i8] c"    If necessary, trim the partial iMCUs at the right or bottom edge of the\0A\00", align 1
@.str.123 = private unnamed_addr constant [52 x i8] c"    image to make the requested transform perfect\0A\0A\00", align 1

; Function Attrs: nounwind uwtable
define internal void @usage(ptr noundef %0) #0 {
  %2 = alloca ptr, align 8
  store ptr %0, ptr %2, align 8, !tbaa !11
  %3 = load ptr, ptr %2, align 8, !tbaa !11
  %4 = call i32 (ptr, ...) @printf(ptr noundef @.str.63, ptr noundef %3)
  %5 = call i32 (ptr, ...) @printf(ptr noundef @.str.64)
  %6 = call i32 (ptr, ...) @printf(ptr noundef @.str.65)
  %7 = call i32 (ptr, ...) @printf(ptr noundef @.str.66)
  %8 = call i32 (ptr, ...) @printf(ptr noundef @.str.67)
  %9 = call i32 (ptr, ...) @printf(ptr noundef @.str.68)
  %10 = call i32 (ptr, ...) @printf(ptr noundef @.str.69)
  %11 = call i32 (ptr, ...) @printf(ptr noundef @.str.70)
  %12 = call i32 (ptr, ...) @printf(ptr noundef @.str.71)
  %13 = call i32 (ptr, ...) @printf(ptr noundef @.str.72)
  %14 = call i32 (ptr, ...) @printf(ptr noundef @.str.73)
  %15 = call i32 (ptr, ...) @printf(ptr noundef @.str.74)
  %16 = call i32 (ptr, ...) @printf(ptr noundef @.str.75)
  %17 = call i32 (ptr, ...) @printf(ptr noundef @.str.76)
  %18 = call i32 (ptr, ...) @printf(ptr noundef @.str.77)
  %19 = call i32 (ptr, ...) @printf(ptr noundef @.str.78)
  %20 = call i32 (ptr, ...) @printf(ptr noundef @.str.79)
  %21 = call i32 (ptr, ...) @printf(ptr noundef @.str.80)
  %22 = call i32 (ptr, ...) @printf(ptr noundef @.str.81)
  %23 = call i32 (ptr, ...) @printf(ptr noundef @.str.82)
  %24 = call i32 (ptr, ...) @printf(ptr noundef @.str.83)
  %25 = call i32 (ptr, ...) @printf(ptr noundef @.str.84)
  %26 = call i32 (ptr, ...) @printf(ptr noundef @.str.85)
  %27 = call i32 (ptr, ...) @printf(ptr noundef @.str.86)
  %28 = call i32 (ptr, ...) @printf(ptr noundef @.str.87)
  %29 = call i32 (ptr, ...) @printf(ptr noundef @.str.88)
  %30 = call i32 (ptr, ...) @printf(ptr noundef @.str.89)
  %31 = call i32 (ptr, ...) @printf(ptr noundef @.str.90)
  %32 = call i32 (ptr, ...) @printf(ptr noundef @.str.91)
  %33 = call i32 (ptr, ...) @printf(ptr noundef @.str.92)
  %34 = call i32 (ptr, ...) @printf(ptr noundef @.str.93)
  %35 = call i32 (ptr, ...) @printf(ptr noundef @.str.94)
  %36 = call i32 (ptr, ...) @printf(ptr noundef @.str.95)
  %37 = call i32 (ptr, ...) @printf(ptr noundef @.str.96)
  %38 = call i32 (ptr, ...) @printf(ptr noundef @.str.97)
  %39 = call i32 (ptr, ...) @printf(ptr noundef @.str.98)
  %40 = call i32 (ptr, ...) @printf(ptr noundef @.str.99)
  %41 = call i32 (ptr, ...) @printf(ptr noundef @.str.100)
  %42 = call i32 (ptr, ...) @printf(ptr noundef @.str.101)
  %43 = call i32 (ptr, ...) @printf(ptr noundef @.str.102)
  %44 = call i32 (ptr, ...) @printf(ptr noundef @.str.103)
  %45 = call i32 (ptr, ...) @printf(ptr noundef @.str.104)
  %46 = call i32 (ptr, ...) @printf(ptr noundef @.str.105)
  %47 = call i32 (ptr, ...) @printf(ptr noundef @.str.106)
  %48 = call i32 (ptr, ...) @printf(ptr noundef @.str.107)
  %49 = call i32 (ptr, ...) @printf(ptr noundef @.str.108)
  %50 = call i32 (ptr, ...) @printf(ptr noundef @.str.109)
  %51 = call i32 (ptr, ...) @printf(ptr noundef @.str.110)
  %52 = call i32 (ptr, ...) @printf(ptr noundef @.str.111)
  %53 = call i32 (ptr, ...) @printf(ptr noundef @.str.112)
  %54 = call i32 (ptr, ...) @printf(ptr noundef @.str.113)
  %55 = call i32 (ptr, ...) @printf(ptr noundef @.str.114)
  %56 = call i32 (ptr, ...) @printf(ptr noundef @.str.115)
  %57 = call i32 (ptr, ...) @printf(ptr noundef @.str.116)
  %58 = call i32 (ptr, ...) @printf(ptr noundef @.str.117)
  %59 = call i32 (ptr, ...) @printf(ptr noundef @.str.118)
  %60 = call i32 (ptr, ...) @printf(ptr noundef @.str.119)
  %61 = call i32 (ptr, ...) @printf(ptr noundef @.str.120)
  %62 = call i32 (ptr, ...) @printf(ptr noundef @.str.121)
  %63 = call i32 (ptr, ...) @printf(ptr noundef @.str.122)
  %64 = call i32 (ptr, ...) @printf(ptr noundef @.str.123)
  call void @exit(i32 noundef 1) #14
  unreachable
}